target datalayout = "e-m:e-p270:32:32-p271:32:32-p272:64:64-i64:64-i128:128-f80:128-n8:16:32:64-S128"
target triple = "x86_64-pc-linux-gnu"

%struct.ossl_quic_tx_packetiser_st = type { %struct.ossl_quic_tx_packetiser_args_st, ptr, i64, ptr, ptr, %struct.quic_fifd_st, [3 x i64], %struct.OSSL_TIME, i64, i16, %struct.ossl_quic_frame_conn_close_st, i64, i64, [4 x %struct.txp_el], ptr, ptr, ptr, ptr, ptr }
%struct.ossl_quic_tx_packetiser_args_st = type { %struct.quic_conn_id_st, %struct.quic_conn_id_st, %union.bio_addr_st, i32, ptr, ptr, ptr, ptr, ptr, ptr, ptr, ptr, ptr, ptr, ptr, ptr, ptr, ptr, ptr, i32, [3 x ptr] }
%struct.quic_conn_id_st = type { i8, [20 x i8] }
%union.bio_addr_st = type { %struct.sockaddr_in6, [84 x i8] }
%struct.sockaddr_in6 = type { i16, i16, i32, %struct.in6_addr, i32 }
%struct.in6_addr = type { %union.anon }
%union.anon = type { [4 x i32] }
%struct.quic_fifd_st = type { ptr, ptr, ptr, ptr, ptr, ptr, ptr, ptr, ptr, ptr, ptr, ptr, ptr }
%struct.OSSL_TIME = type { i64 }
%struct.ossl_quic_frame_conn_close_st = type { i8, i64, i64, ptr, i64 }
%struct.txp_el = type { ptr, i64, ptr, i64 }

; Function Attrs: nounwind uwtable
define i32 @ossl_quic_tx_packetiser_set_peer(ptr noundef %0, ptr noundef %1) #0 {
  %3 = alloca i32, align 4
  %4 = alloca ptr, align 8
  %5 = alloca ptr, align 8
  store ptr %0, ptr %4, align 8, !tbaa !3
  store ptr %1, ptr %5, align 8, !tbaa !91
  %6 = load ptr, ptr %5, align 8, !tbaa !91
  %7 = icmp eq ptr %6, null
  br i1 %7, label %8, label %12

8:                                                ; preds = %2
  %9 = load ptr, ptr %4, align 8, !tbaa !3
  %10 = getelementptr inbounds nuw %struct.ossl_quic_tx_packetiser_st, ptr %9, i32 0, i32 0
  %11 = getelementptr inbounds nuw %struct.ossl_quic_tx_packetiser_args_st, ptr %10, i32 0, i32 2
  call void @BIO_ADDR_clear(ptr noundef %11)
  store i32 1, ptr %3, align 4
  br label %17

12:                                               ; preds = %2
  %13 = load ptr, ptr %4, align 8, !tbaa !3
  %14 = getelementptr inbounds nuw %struct.ossl_quic_tx_packetiser_st, ptr %13, i32 0, i32 0
  %15 = getelementptr inbounds nuw %struct.ossl_quic_tx_packetiser_args_st, ptr %14, i32 0, i32 2
  %16 = load ptr, ptr %5, align 8, !tbaa !91
  call void @llvm.memcpy.p0.p0.i64(ptr align 4 %15, ptr align 4 %16, i64 112, i1 false), !tbaa.struct !93
  store i32 1, ptr %3, align 4
  br label %17

17:                                               ; preds = %12, %8
  %18 = load i32, ptr %3, align 4
  ret i32 %18
}