; Function Attrs: nounwind uwtable
define noundef i32 @ossl_quic_tx_packetiser_set_peer(ptr noundef %0, ptr noundef readonly captures(address_is_null) %1) local_unnamed_addr #3 {
  %3 = icmp eq ptr %1, null
  %4 = getelementptr inbounds nuw i8, ptr %0, i64 44
  br i1 %3, label %5, label %6

5:                                                ; preds = %2
  tail call void @BIO_ADDR_clear(ptr noundef nonnull %4) #10
  br label %7

6:                                                ; preds = %2
  tail call void @llvm.memcpy.p0.p0.i64(ptr noundef nonnull align 4 dereferenceable(112) %4, ptr noundef nonnull align 4 dereferenceable(112) %1, i64 112, i1 false), !tbaa.struct !80
  br label %7

7:                                                ; preds = %6, %5
  ret i32 1
}